; Function Attrs: nounwind uwtable
define internal fastcc void @tbm_create_pagetable(ptr noundef %0) unnamed_addr #0 {
  %2 = alloca i8, align 1
  %3 = getelementptr inbounds nuw i8, ptr %0, i64 8
  %4 = load ptr, ptr %3, align 8
  %5 = tail call ptr @MemoryContextAllocZero(ptr noundef %4, i64 noundef 48) #14
  %6 = getelementptr inbounds nuw i8, ptr %5, i64 32
  store ptr %4, ptr %6, align 8
  %7 = getelementptr inbounds nuw i8, ptr %5, i64 40
  store ptr %0, ptr %7, align 8
  %8 = getelementptr inbounds nuw i8, ptr %0, i64 152
  %9 = load ptr, ptr %8, align 8
  %10 = icmp eq ptr %9, null
  br i1 %10, label %11, label %13

11:                                               ; preds = %1
  %12 = tail call ptr @MemoryContextAllocExtended(ptr noundef %4, i64 noundef 12288, i32 noundef 5) #14
  br label %pagetable_create.exit

13:                                               ; preds = %1
  %14 = getelementptr inbounds nuw i8, ptr %0, i64 120
  %15 = load i64, ptr %14, align 8
  %16 = getelementptr inbounds nuw i8, ptr %0, i64 128
  store i64 %15, ptr %16, align 8
  %17 = tail call i64 @dsa_allocate_extended(ptr noundef nonnull %9, i64 noundef 12296, i32 noundef 5) #14
  store i64 %17, ptr %14, align 8
  %18 = load ptr, ptr %8, align 8
  %19 = tail call ptr @dsa_get_address(ptr noundef %18, i64 noundef %17) #14
  %20 = getelementptr inbounds nuw i8, ptr %19, i64 8
  br label %pagetable_create.exit

pagetable_create.exit:                            ; preds = %11, %13
  %.0.i.i = phi ptr [ %12, %11 ], [ %20, %13 ]
  %21 = getelementptr inbounds nuw i8, ptr %5, i64 24
  store ptr %.0.i.i, ptr %21, align 8
  store i64 256, ptr %5, align 8
  %22 = getelementptr inbounds nuw i8, ptr %5, i64 12
  store i32 255, ptr %22, align 4
  %23 = getelementptr inbounds nuw i8, ptr %5, i64 16
  store i32 230, ptr %23, align 8
  %24 = getelementptr inbounds nuw i8, ptr %0, i64 24
  store ptr %5, ptr %24, align 8
  %25 = getelementptr inbounds nuw i8, ptr %0, i64 16
  %26 = load i32, ptr %25, align 8
  %27 = icmp eq i32 %26, 1
  br i1 %27, label %28, label %34

28:                                               ; preds = %pagetable_create.exit
  call void @llvm.lifetime.start.p0(i64 1, ptr nonnull %2) #14
  %29 = getelementptr inbounds nuw i8, ptr %0, i64 56
  %30 = load i32, ptr %29, align 8
  %31 = call fastcc ptr @pagetable_insert(ptr noundef nonnull %5, i32 noundef %30, ptr noundef %2)
  %32 = getelementptr inbounds nuw i8, ptr %31, i64 4
  %33 = load i8, ptr %32, align 4
  tail call void @llvm.memcpy.p0.p0.i64(ptr noundef nonnull align 8 dereferenceable(48) %31, ptr noundef nonnull align 8 dereferenceable(48) %29, i64 48, i1 false)
  store i8 %33, ptr %32, align 4
  call void @llvm.lifetime.end.p0(i64 1, ptr nonnull %2) #14
  br label %34

34:                                               ; preds = %28, %pagetable_create.exit
  store i32 2, ptr %25, align 8
  ret void
}